target datalayout = "e-m:e-p270:32:32-p271:32:32-p272:64:64-i64:64-i128:128-f80:128-n8:16:32:64-S128"
target triple = "x86_64-pc-linux-gnu"

%struct.SurfaceDataRasInfo = type { %struct.SurfaceDataBounds, ptr, i32, i32, i32, i32, ptr, ptr, ptr, ptr, ptr, ptr, i32, %union.anon.0 }
%struct.SurfaceDataBounds = type { i32, i32, i32, i32 }
%union.anon.0 = type { ptr, [56 x i8] }

; Function Attrs: nounwind uwtable
define hidden void @AnyIntIsomorphicScaleCopy(ptr noundef %0, ptr noundef %1, i32 noundef %2, i32 noundef %3, i32 noundef %4, i32 noundef %5, i32 noundef %6, i32 noundef %7, i32 noundef %8, ptr noundef %9, ptr noundef %10, ptr noundef %11, ptr noundef %12) #0 {
  %14 = alloca ptr, align 8
  %15 = alloca ptr, align 8
  %16 = alloca i32, align 4
  %17 = alloca i32, align 4
  %18 = alloca i32, align 4
  %19 = alloca i32, align 4
  %20 = alloca i32, align 4
  %21 = alloca i32, align 4
  %22 = alloca i32, align 4
  %23 = alloca ptr, align 8
  %24 = alloca ptr, align 8
  %25 = alloca ptr, align 8
  %26 = alloca ptr, align 8
  %27 = alloca ptr, align 8
  %28 = alloca ptr, align 8
  %29 = alloca i32, align 4
  %30 = alloca i32, align 4
  %31 = alloca i32, align 4
  %32 = alloca i32, align 4
  %33 = alloca i32, align 4
  store ptr %0, ptr %14, align 8
  store ptr %1, ptr %15, align 8
  store i32 %2, ptr %16, align 4
  store i32 %3, ptr %17, align 4
  store i32 %4, ptr %18, align 4
  store i32 %5, ptr %19, align 4
  store i32 %6, ptr %20, align 4
  store i32 %7, ptr %21, align 4
  store i32 %8, ptr %22, align 4
  store ptr %9, ptr %23, align 8
  store ptr %10, ptr %24, align 8
  store ptr %11, ptr %25, align 8
  store ptr %12, ptr %26, align 8
  br label %34

34:                                               ; preds = %13
  %35 = load ptr, ptr %15, align 8
  store ptr %35, ptr %28, align 8
  %36 = load ptr, ptr %23, align 8
  %37 = getelementptr inbounds %struct.SurfaceDataRasInfo, ptr %36, i32 0, i32 4
  %38 = load i32, ptr %37, align 8
  store i32 %38, ptr %29, align 4
  %39 = load ptr, ptr %24, align 8
  %40 = getelementptr inbounds %struct.SurfaceDataRasInfo, ptr %39, i32 0, i32 4
  %41 = load i32, ptr %40, align 8
  store i32 %41, ptr %30, align 4
  %42 = load i32, ptr %16, align 4
  %43 = mul i32 %42, 4
  %44 = load i32, ptr %30, align 4
  %45 = sub i32 %44, %43
  store i32 %45, ptr %30, align 4
  br label %46

46:                                               ; preds = %92, %34
  %47 = load i32, ptr %16, align 4
  store i32 %47, ptr %31, align 4
  %48 = load i32, ptr %18, align 4
  store i32 %48, ptr %32, align 4
  %49 = load ptr, ptr %14, align 8
  %50 = ptrtoint ptr %49 to i64
  %51 = load i32, ptr %19, align 4
  %52 = load i32, ptr %22, align 4
  %53 = ashr i32 %51, %52
  %54 = sext i32 %53 to i64
  %55 = load i32, ptr %29, align 4
  %56 = sext i32 %55 to i64
  %57 = mul nsw i64 %54, %56
  %58 = add nsw i64 %50, %57
  %59 = inttoptr i64 %58 to ptr
  store ptr %59, ptr %27, align 8
  br label %60

60:                                               ; preds = %78, %46
  %61 = load i32, ptr %32, align 4
  %62 = load i32, ptr %22, align 4
  %63 = ashr i32 %61, %62
  store i32 %63, ptr %33, align 4
  %64 = load ptr, ptr %27, align 8
  %65 = load i32, ptr %33, align 4
  %66 = sext i32 %65 to i64
  %67 = getelementptr inbounds i32, ptr %64, i64 %66
  %68 = load i32, ptr %67, align 4
  %69 = load ptr, ptr %28, align 8
  %70 = getelementptr inbounds i32, ptr %69, i64 0
  store i32 %68, ptr %70, align 4
  %71 = load ptr, ptr %28, align 8
  %72 = ptrtoint ptr %71 to i64
  %73 = add nsw i64 %72, 4
  %74 = inttoptr i64 %73 to ptr
  store ptr %74, ptr %28, align 8
  %75 = load i32, ptr %20, align 4
  %76 = load i32, ptr %32, align 4
  %77 = add nsw i32 %76, %75
  store i32 %77, ptr %32, align 4
  br label %78

78:                                               ; preds = %60
  %79 = load i32, ptr %31, align 4
  %80 = add i32 %79, -1
  store i32 %80, ptr %31, align 4
  %81 = icmp ugt i32 %80, 0
  br i1 %81, label %60, label %82, !llvm.loop !32

82:                                               ; preds = %78
  %83 = load ptr, ptr %28, align 8
  %84 = ptrtoint ptr %83 to i64
  %85 = load i32, ptr %30, align 4
  %86 = sext i32 %85 to i64
  %87 = add nsw i64 %84, %86
  %88 = inttoptr i64 %87 to ptr
  store ptr %88, ptr %28, align 8
  %89 = load i32, ptr %21, align 4
  %90 = load i32, ptr %19, align 4
  %91 = add nsw i32 %90, %89
  store i32 %91, ptr %19, align 4
  br label %92

92:                                               ; preds = %82
  %93 = load i32, ptr %17, align 4
  %94 = add i32 %93, -1
  store i32 %94, ptr %17, align 4
  %95 = icmp ugt i32 %94, 0
  br i1 %95, label %46, label %96, !llvm.loop !33

96:                                               ; preds = %92
  br label %97

97:                                               ; preds = %96
  ret void
}