; Function Attrs: nofree norecurse nosync nounwind memory(readwrite, inaccessiblemem: none) uwtable
define hidden void @AnyIntIsomorphicScaleCopy(ptr noundef %0, ptr noundef %1, i32 noundef %2, i32 noundef %3, i32 noundef %4, i32 noundef %5, i32 noundef %6, i32 noundef %7, i32 noundef %8, ptr nocapture noundef readonly %9, ptr nocapture noundef readonly %10, ptr nocapture noundef readnone %11, ptr nocapture noundef readnone %12) local_unnamed_addr #2 {
  %14 = getelementptr inbounds i8, ptr %9, i64 32
  %15 = load i32, ptr %14, align 8
  %16 = getelementptr inbounds i8, ptr %10, i64 32
  %17 = load i32, ptr %16, align 8
  %18 = shl i32 %2, 2
  %19 = sub i32 %17, %18
  %20 = sext i32 %19 to i64
  %21 = ptrtoint ptr %0 to i64
  %22 = sext i32 %15 to i64
  br label %23

23:                                               ; preds = %39, %13
  %.027 = phi ptr [ %1, %13 ], [ %41, %39 ]
  %.026 = phi i32 [ %5, %13 ], [ %42, %39 ]
  %.0 = phi i32 [ %3, %13 ], [ %43, %39 ]
  %24 = ashr i32 %.026, %8
  %25 = sext i32 %24 to i64
  %26 = mul nsw i64 %25, %22
  %27 = add nsw i64 %26, %21
  %28 = inttoptr i64 %27 to ptr
  br label %29

29:                                               ; preds = %29, %23
  %.1 = phi ptr [ %.027, %23 ], [ %36, %29 ]
  %.025 = phi i32 [ %2, %23 ], [ %38, %29 ]
  %.024 = phi i32 [ %4, %23 ], [ %37, %29 ]
  %30 = ashr i32 %.024, %8
  %31 = sext i32 %30 to i64
  %32 = getelementptr inbounds i32, ptr %28, i64 %31
  %33 = load i32, ptr %32, align 4
  store i32 %33, ptr %.1, align 4
  %34 = ptrtoint ptr %.1 to i64
  %35 = add nsw i64 %34, 4
  %36 = inttoptr i64 %35 to ptr
  %37 = add nsw i32 %.024, %6
  %38 = add i32 %.025, -1
  %.not = icmp eq i32 %38, 0
  br i1 %.not, label %39, label %29, !llvm.loop !32

39:                                               ; preds = %29
  %40 = add nsw i64 %35, %20
  %41 = inttoptr i64 %40 to ptr
  %42 = add nsw i32 %.026, %7
  %43 = add i32 %.0, -1
  %.not29 = icmp eq i32 %43, 0
  br i1 %.not29, label %44, label %23, !llvm.loop !33

44:                                               ; preds = %39
  ret void
}